target datalayout = "e-m:e-p270:32:32-p271:32:32-p272:64:64-i64:64-i128:128-f80:128-n8:16:32:64-S128"
target triple = "x86_64-pc-linux-gnu"

%struct._asn1_ctx_t = type { i32, i32, i8, ptr, ptr, ptr, ptr, ptr, %struct.anon, %struct.anon.2, %struct.anon.3, ptr }
%struct.anon = type { i32, i8, i8, i8, ptr, ptr, i32, i32, ptr, ptr, ptr, %union.anon }
%union.anon = type { %struct.anon.0 }
%struct.anon.0 = type { ptr }
%struct.anon.2 = type { ptr, ptr, ptr }
%struct.anon.3 = type { i32, i8, ptr, i32, i32, ptr, ptr, ptr, %union.anon.4 }
%union.anon.4 = type { %struct.anon.5 }
%struct.anon.5 = type { ptr }
%struct._packet_info = type { ptr, ptr, i32, i32, %struct.nstime_t, %struct.nstime_t, %struct.nstime_t, i8, ptr, ptr, ptr, ptr, %struct._address, %struct._address, %struct._address, %struct._address, %struct._address, %struct._address, i32, ptr, i8, [3 x i8], %struct.anon.7, i32, i32, i32, i32, ptr, i8, ptr, ptr, i16, i16, i32, i32, i16, i32, i32, ptr, ptr, ptr, i8, i8, i16, i16, i16, i32, i16, i16, ptr, ptr, ptr, ptr, ptr, i32, i32 }
%struct.nstime_t = type { i64, i32 }
%struct._address = type { i32, i32, ptr, ptr }
%struct.anon.7 = type { i8, [3 x i8] }
%struct._gef_ctx_t = type { i32, ptr, ptr, ptr, ptr, ptr }
%struct._proto_node = type { ptr, ptr, ptr, ptr, ptr, ptr, ptr }
%struct.field_info = type { ptr, i32, i32, i32, i32, i32, i32, ptr, ptr, ptr, i32, i32 }

@hf_h245_debug_dissector_try_string = internal global i32 0, align 4
@.str.1477 = private unnamed_addr constant [12 x i8] c"unsignedMax\00", align 1
@gef_content_dissector_table = internal global ptr null, align 8

; Function Attrs: inlinehint nounwind null_pointer_is_valid sspstrong uwtable
define internal void @proto_item_set_hidden(ptr noundef %0) #6 {
  %2 = alloca ptr, align 8
  store ptr %0, ptr %2, align 8
  %3 = load ptr, ptr %2, align 8
  %4 = icmp ne ptr %3, null
  br i1 %4, label %5, label %24

5:                                                ; preds = %1
  br label %6

6:                                                ; preds = %5
  %7 = load ptr, ptr %2, align 8
  %8 = getelementptr inbounds nuw %struct._proto_node, ptr %7, i32 0, i32 5
  %9 = load ptr, ptr %8, align 8
  %10 = icmp ne ptr %9, null
  br i1 %10, label %11, label %22

11:                                               ; preds = %6
  %12 = load ptr, ptr %2, align 8
  %13 = getelementptr inbounds nuw %struct._proto_node, ptr %12, i32 0, i32 5
  %14 = load ptr, ptr %13, align 8
  %15 = getelementptr inbounds nuw %struct.field_info, ptr %14, i32 0, i32 6
  %16 = load i32, ptr %15, align 4
  %17 = or i32 %16, 1
  %18 = load ptr, ptr %2, align 8
  %19 = getelementptr inbounds nuw %struct._proto_node, ptr %18, i32 0, i32 5
  %20 = load ptr, ptr %19, align 8
  %21 = getelementptr inbounds nuw %struct.field_info, ptr %20, i32 0, i32 6
  store i32 %17, ptr %21, align 4
  br label %22

22:                                               ; preds = %11, %6
  br label %23

23:                                               ; preds = %22
  br label %24

24:                                               ; preds = %23, %1
  ret void
}

; Function Attrs: inlinehint nounwind null_pointer_is_valid sspstrong uwtable
define internal void @phton16(ptr noundef %0, i16 noundef zeroext %1) #6 {
  %3 = alloca ptr, align 8
  %4 = alloca i16, align 2
  store ptr %0, ptr %3, align 8
  store i16 %1, ptr %4, align 2
  %5 = load i16, ptr %4, align 2
  %6 = zext i16 %5 to i32
  %7 = ashr i32 %6, 8
  %8 = trunc i32 %7 to i8
  %9 = load ptr, ptr %3, align 8
  %10 = getelementptr i8, ptr %9, i64 0
  store i8 %8, ptr %10, align 1
  %11 = load i16, ptr %4, align 2
  %12 = zext i16 %11 to i32
  %13 = ashr i32 %12, 0
  %14 = trunc i32 %13 to i8
  %15 = load ptr, ptr %3, align 8
  %16 = getelementptr i8, ptr %15, i64 1
  store i8 %14, ptr %16, align 1
  ret void
}

; Function Attrs: null_pointer_is_valid sspstrong uwtable
define internal i32 @dissect_h245_T_unsignedMax(ptr noundef %0, i32 noundef %1, ptr noundef %2, ptr noundef %3, i32 noundef %4) #1 {
  %6 = alloca ptr, align 8
  %7 = alloca i32, align 4
  %8 = alloca ptr, align 8
  %9 = alloca ptr, align 8
  %10 = alloca i32, align 4
  %11 = alloca i32, align 4
  %12 = alloca ptr, align 8
  %13 = alloca ptr, align 8
  %14 = alloca ptr, align 8
  %15 = alloca ptr, align 8
  store ptr %0, ptr %6, align 8
  store i32 %1, ptr %7, align 4
  store ptr %2, ptr %8, align 8
  store ptr %3, ptr %9, align 8
  store i32 %4, ptr %10, align 4
  call void @llvm.lifetime.start.p0(i64 4, ptr %11) #12
  call void @llvm.lifetime.start.p0(i64 8, ptr %12) #12
  call void @llvm.lifetime.start.p0(i64 8, ptr %13) #12
  call void @llvm.lifetime.start.p0(i64 8, ptr %14) #12
  call void @llvm.lifetime.start.p0(i64 8, ptr %15) #12
  %16 = load ptr, ptr %6, align 8
  %17 = load i32, ptr %7, align 4
  %18 = load ptr, ptr %8, align 8
  %19 = load ptr, ptr %9, align 8
  %20 = load i32, ptr %10, align 4
  %21 = call i32 @dissect_per_constrained_integer(ptr noundef %16, i32 noundef %17, ptr noundef %18, ptr noundef %19, i32 noundef %20, i32 noundef 0, i32 noundef 65535, ptr noundef %11, i1 noundef zeroext false)
  store i32 %21, ptr %7, align 4
  %22 = load ptr, ptr %8, align 8
  %23 = getelementptr inbounds nuw %struct._asn1_ctx_t, ptr %22, i32 0, i32 7
  %24 = load ptr, ptr %23, align 8
  %25 = call ptr @gef_ctx_get(ptr noundef %24)
  store ptr %25, ptr %14, align 8
  %26 = load ptr, ptr %14, align 8
  %27 = icmp ne ptr %26, null
  br i1 %27, label %28, label %66

28:                                               ; preds = %5
  %29 = load ptr, ptr %8, align 8
  %30 = getelementptr inbounds nuw %struct._asn1_ctx_t, ptr %29, i32 0, i32 3
  %31 = load ptr, ptr %30, align 8
  %32 = getelementptr inbounds nuw %struct._packet_info, ptr %31, i32 0, i32 51
  %33 = load ptr, ptr %32, align 8
  %34 = call noalias ptr @wmem_alloc(ptr noundef %33, i64 noundef 2) #13
  store ptr %34, ptr %12, align 8
  %35 = load ptr, ptr %12, align 8
  %36 = load i32, ptr %11, align 4
  %37 = trunc i32 %36 to i16
  call void @phton16(ptr noundef %35, i16 noundef zeroext %37)
  %38 = load ptr, ptr %6, align 8
  %39 = load ptr, ptr %12, align 8
  %40 = call ptr @tvb_new_child_real_data(ptr noundef %38, ptr noundef %39, i32 noundef 2, i32 noundef 2)
  store ptr %40, ptr %13, align 8
  %41 = load ptr, ptr %9, align 8
  %42 = load i32, ptr @hf_h245_debug_dissector_try_string, align 4
  %43 = load ptr, ptr %6, align 8
  %44 = load i32, ptr %7, align 4
  %45 = ashr i32 %44, 3
  %46 = load ptr, ptr %14, align 8
  %47 = getelementptr inbounds nuw %struct._gef_ctx_t, ptr %46, i32 0, i32 5
  %48 = load ptr, ptr %47, align 8
  %49 = call ptr @proto_tree_add_string(ptr noundef %41, i32 noundef %42, ptr noundef %43, i32 noundef %45, i32 noundef 0, ptr noundef %48)
  store ptr %49, ptr %15, align 8
  %50 = load ptr, ptr %15, align 8
  call void @proto_item_set_hidden(ptr noundef %50)
  %51 = load ptr, ptr %8, align 8
  %52 = getelementptr inbounds nuw %struct._asn1_ctx_t, ptr %51, i32 0, i32 3
  %53 = load ptr, ptr %52, align 8
  %54 = load ptr, ptr %13, align 8
  call void @add_new_data_source(ptr noundef %53, ptr noundef %54, ptr noundef @.str.1477)
  %55 = load ptr, ptr @gef_content_dissector_table, align 8
  %56 = load ptr, ptr %14, align 8
  %57 = getelementptr inbounds nuw %struct._gef_ctx_t, ptr %56, i32 0, i32 5
  %58 = load ptr, ptr %57, align 8
  %59 = load ptr, ptr %13, align 8
  %60 = load ptr, ptr %8, align 8
  %61 = getelementptr inbounds nuw %struct._asn1_ctx_t, ptr %60, i32 0, i32 3
  %62 = load ptr, ptr %61, align 8
  %63 = load ptr, ptr %9, align 8
  %64 = load ptr, ptr %8, align 8
  %65 = call i32 @dissector_try_string_with_data(ptr noundef %55, ptr noundef %58, ptr noundef %59, ptr noundef %62, ptr noundef %63, i1 noundef zeroext true, ptr noundef %64)
  br label %66

66:                                               ; preds = %28, %5
  %67 = load i32, ptr %7, align 4
  call void @llvm.lifetime.end.p0(i64 8, ptr %15) #12
  call void @llvm.lifetime.end.p0(i64 8, ptr %14) #12
  call void @llvm.lifetime.end.p0(i64 8, ptr %13) #12
  call void @llvm.lifetime.end.p0(i64 8, ptr %12) #12
  call void @llvm.lifetime.end.p0(i64 4, ptr %11) #12
  ret i32 %67
}