; Function Attrs: null_pointer_is_valid sspstrong uwtable
define internal i32 @dissect_h245_T_unsignedMax(ptr noundef %0, i32 noundef %1, ptr noundef %2, ptr noundef %3, i32 noundef %4) #1 {
  %6 = alloca i32, align 4
  call void @llvm.lifetime.start.p0(i64 4, ptr nonnull %6) #13
  %7 = call i32 @dissect_per_constrained_integer(ptr noundef %0, i32 noundef %1, ptr noundef %2, ptr noundef %3, i32 noundef %4, i32 noundef 0, i32 noundef 65535, ptr noundef nonnull %6, i1 noundef zeroext false)
  %8 = getelementptr inbounds nuw i8, ptr %2, i64 48
  %9 = load ptr, ptr %8, align 8
  %10 = call ptr @gef_ctx_get(ptr noundef %9)
  %.not = icmp eq ptr %10, null
  br i1 %.not, label %40, label %11

11:                                               ; preds = %5
  %12 = getelementptr inbounds nuw i8, ptr %2, i64 16
  %13 = load ptr, ptr %12, align 8
  %14 = getelementptr inbounds nuw i8, ptr %13, i64 408
  %15 = load ptr, ptr %14, align 8
  %16 = call noalias dereferenceable_or_null(2) ptr @wmem_alloc(ptr noundef %15, i64 noundef 2) #11
  %17 = load i32, ptr %6, align 4
  %18 = lshr i32 %17, 8
  %19 = trunc i32 %18 to i8
  store i8 %19, ptr %16, align 1
  %20 = trunc i32 %17 to i8
  %21 = getelementptr i8, ptr %16, i64 1
  store i8 %20, ptr %21, align 1
  %22 = call ptr @tvb_new_child_real_data(ptr noundef %0, ptr noundef %16, i32 noundef 2, i32 noundef 2)
  %23 = load i32, ptr @hf_h245_debug_dissector_try_string, align 4
  %24 = ashr i32 %7, 3
  %25 = getelementptr inbounds nuw i8, ptr %10, i64 40
  %26 = load ptr, ptr %25, align 8
  %27 = call ptr @proto_tree_add_string(ptr noundef %3, i32 noundef %23, ptr noundef %0, i32 noundef %24, i32 noundef 0, ptr noundef %26)
  %.not.i = icmp eq ptr %27, null
  br i1 %.not.i, label %proto_item_set_hidden.exit, label %28

28:                                               ; preds = %11
  %29 = getelementptr inbounds nuw i8, ptr %27, i64 40
  %30 = load ptr, ptr %29, align 8
  %.not5.i = icmp eq ptr %30, null
  br i1 %.not5.i, label %proto_item_set_hidden.exit, label %31

31:                                               ; preds = %28
  %32 = getelementptr inbounds nuw i8, ptr %30, i64 28
  %33 = load i32, ptr %32, align 4
  %34 = or i32 %33, 1
  store i32 %34, ptr %32, align 4
  br label %proto_item_set_hidden.exit

proto_item_set_hidden.exit:                       ; preds = %11, %28, %31
  %35 = load ptr, ptr %12, align 8
  call void @add_new_data_source(ptr noundef %35, ptr noundef %22, ptr noundef nonnull @.str.1477)
  %36 = load ptr, ptr @gef_content_dissector_table, align 8
  %37 = load ptr, ptr %25, align 8
  %38 = load ptr, ptr %12, align 8
  %39 = call i32 @dissector_try_string_with_data(ptr noundef %36, ptr noundef %37, ptr noundef %22, ptr noundef %38, ptr noundef %3, i1 noundef zeroext true, ptr noundef %2)
  br label %40

40:                                               ; preds = %proto_item_set_hidden.exit, %5
  call void @llvm.lifetime.end.p0(i64 4, ptr nonnull %6) #13
  ret i32 %7
}